target datalayout = "e-m:e-p270:32:32-p271:32:32-p272:64:64-i64:64-i128:128-f80:128-n8:16:32:64-S128"
target triple = "x86_64-pc-linux-gnu"

%struct.AVFilterContext = type { ptr, ptr, ptr, ptr, ptr, i32, ptr, ptr, i32, ptr, ptr, i32, i32, ptr, ptr, ptr, ptr, i32, ptr, i32, i32 }
%struct.HueContext = type { ptr, float, float, ptr, ptr, ptr, ptr, float, ptr, ptr, float, ptr, ptr, i32, i32, i32, i32, i32, [5 x double], [256 x i8], [256 x [256 x i8]], [256 x [256 x i8]], [65536 x i16], [1024 x [1024 x i16]], [1024 x [1024 x i16]] }

@.str.7 = private unnamed_addr constant [2 x i8] c"h\00", align 1
@.str.9 = private unnamed_addr constant [2 x i8] c"s\00", align 1
@.str.12 = private unnamed_addr constant [2 x i8] c"H\00", align 1
@.str.14 = private unnamed_addr constant [2 x i8] c"b\00", align 1
@.str.18 = private unnamed_addr constant [75 x i8] c"H and h options are incompatible and cannot be specified at the same time\0A\00", align 1
@.str.19 = private unnamed_addr constant [45 x i8] c"H_expr:%s h_deg_expr:%s s_expr:%s b_expr:%s\0A\00", align 1

; Function Attrs: inlinehint nounwind uwtable
define internal void @compute_sin_and_cos(ptr noundef %0) #3 {
  %2 = alloca ptr, align 8
  store ptr %0, ptr %2, align 8, !tbaa !22
  %3 = load ptr, ptr %2, align 8, !tbaa !22
  %4 = getelementptr inbounds nuw %struct.HueContext, ptr %3, i32 0, i32 2
  %5 = load float, ptr %4, align 4, !tbaa !76
  %6 = fpext nsz float %5 to double
  %7 = call nsz double @llvm.sin.f64(double %6)
  %8 = fmul nsz double %7, 6.553600e+04
  %9 = load ptr, ptr %2, align 8, !tbaa !22
  %10 = getelementptr inbounds nuw %struct.HueContext, ptr %9, i32 0, i32 7
  %11 = load float, ptr %10, align 8, !tbaa !74
  %12 = fpext nsz float %11 to double
  %13 = fmul nsz double %8, %12
  %14 = call i64 @llvm.lrint.i64.f64(double %13)
  %15 = trunc i64 %14 to i32
  %16 = load ptr, ptr %2, align 8, !tbaa !22
  %17 = getelementptr inbounds nuw %struct.HueContext, ptr %16, i32 0, i32 16
  store i32 %15, ptr %17, align 4, !tbaa !53
  %18 = load ptr, ptr %2, align 8, !tbaa !22
  %19 = getelementptr inbounds nuw %struct.HueContext, ptr %18, i32 0, i32 2
  %20 = load float, ptr %19, align 4, !tbaa !76
  %21 = fpext nsz float %20 to double
  %22 = call nsz double @llvm.cos.f64(double %21)
  %23 = fmul nsz double %22, 6.553600e+04
  %24 = load ptr, ptr %2, align 8, !tbaa !22
  %25 = getelementptr inbounds nuw %struct.HueContext, ptr %24, i32 0, i32 7
  %26 = load float, ptr %25, align 8, !tbaa !74
  %27 = fpext nsz float %26 to double
  %28 = fmul nsz double %23, %27
  %29 = call i64 @llvm.lrint.i64.f64(double %28)
  %30 = trunc i64 %29 to i32
  %31 = load ptr, ptr %2, align 8, !tbaa !22
  %32 = getelementptr inbounds nuw %struct.HueContext, ptr %31, i32 0, i32 17
  store i32 %30, ptr %32, align 8, !tbaa !54
  ret void
}

; Function Attrs: cold nounwind optsize uwtable
define internal i32 @init(ptr noundef %0) #0 {
  %2 = alloca i32, align 4
  %3 = alloca ptr, align 8
  %4 = alloca ptr, align 8
  %5 = alloca i32, align 4
  %6 = alloca i32, align 4
  store ptr %0, ptr %3, align 8, !tbaa !4
  call void @llvm.lifetime.start.p0(i64 8, ptr %4) #9
  %7 = load ptr, ptr %3, align 8, !tbaa !4
  %8 = getelementptr inbounds nuw %struct.AVFilterContext, ptr %7, i32 0, i32 9
  %9 = load ptr, ptr %8, align 8, !tbaa !9
  store ptr %9, ptr %4, align 8, !tbaa !22
  call void @llvm.lifetime.start.p0(i64 4, ptr %5) #9
  %10 = load ptr, ptr %4, align 8, !tbaa !22
  %11 = getelementptr inbounds nuw %struct.HueContext, ptr %10, i32 0, i32 4
  %12 = load ptr, ptr %11, align 8, !tbaa !24
  %13 = icmp ne ptr %12, null
  br i1 %13, label %14, label %21

14:                                               ; preds = %1
  %15 = load ptr, ptr %4, align 8, !tbaa !22
  %16 = getelementptr inbounds nuw %struct.HueContext, ptr %15, i32 0, i32 3
  %17 = load ptr, ptr %16, align 8, !tbaa !28
  %18 = icmp ne ptr %17, null
  br i1 %18, label %19, label %21

19:                                               ; preds = %14
  %20 = load ptr, ptr %3, align 8, !tbaa !4
  call void (ptr, i32, ptr, ...) @av_log(ptr noundef %20, i32 noundef 16, ptr noundef @.str.18)
  store i32 -22, ptr %2, align 4
  store i32 1, ptr %6, align 4
  br label %130

21:                                               ; preds = %14, %1
  %22 = load ptr, ptr %4, align 8, !tbaa !22
  %23 = getelementptr inbounds nuw %struct.HueContext, ptr %22, i32 0, i32 11
  %24 = load ptr, ptr %23, align 8, !tbaa !29
  %25 = icmp ne ptr %24, null
  br i1 %25, label %26, label %44

26:                                               ; preds = %21
  br label %27

27:                                               ; preds = %26
  %28 = load ptr, ptr %4, align 8, !tbaa !22
  %29 = getelementptr inbounds nuw %struct.HueContext, ptr %28, i32 0, i32 12
  %30 = load ptr, ptr %4, align 8, !tbaa !22
  %31 = getelementptr inbounds nuw %struct.HueContext, ptr %30, i32 0, i32 11
  %32 = load ptr, ptr %4, align 8, !tbaa !22
  %33 = getelementptr inbounds nuw %struct.HueContext, ptr %32, i32 0, i32 11
  %34 = load ptr, ptr %33, align 8, !tbaa !29
  %35 = load ptr, ptr %3, align 8, !tbaa !4
  %36 = call i32 @set_expr(ptr noundef %29, ptr noundef %31, ptr noundef %34, ptr noundef @.str.14, ptr noundef %35)
  store i32 %36, ptr %5, align 4, !tbaa !30
  %37 = load i32, ptr %5, align 4, !tbaa !30
  %38 = icmp slt i32 %37, 0
  br i1 %38, label %39, label %41

39:                                               ; preds = %27
  %40 = load i32, ptr %5, align 4, !tbaa !30
  store i32 %40, ptr %2, align 4
  store i32 1, ptr %6, align 4
  br label %130

41:                                               ; preds = %27
  br label %42

42:                                               ; preds = %41
  br label %43

43:                                               ; preds = %42
  br label %44

44:                                               ; preds = %43, %21
  %45 = load ptr, ptr %4, align 8, !tbaa !22
  %46 = getelementptr inbounds nuw %struct.HueContext, ptr %45, i32 0, i32 8
  %47 = load ptr, ptr %46, align 8, !tbaa !31
  %48 = icmp ne ptr %47, null
  br i1 %48, label %49, label %67

49:                                               ; preds = %44
  br label %50

50:                                               ; preds = %49
  %51 = load ptr, ptr %4, align 8, !tbaa !22
  %52 = getelementptr inbounds nuw %struct.HueContext, ptr %51, i32 0, i32 9
  %53 = load ptr, ptr %4, align 8, !tbaa !22
  %54 = getelementptr inbounds nuw %struct.HueContext, ptr %53, i32 0, i32 8
  %55 = load ptr, ptr %4, align 8, !tbaa !22
  %56 = getelementptr inbounds nuw %struct.HueContext, ptr %55, i32 0, i32 8
  %57 = load ptr, ptr %56, align 8, !tbaa !31
  %58 = load ptr, ptr %3, align 8, !tbaa !4
  %59 = call i32 @set_expr(ptr noundef %52, ptr noundef %54, ptr noundef %57, ptr noundef @.str.9, ptr noundef %58)
  store i32 %59, ptr %5, align 4, !tbaa !30
  %60 = load i32, ptr %5, align 4, !tbaa !30
  %61 = icmp slt i32 %60, 0
  br i1 %61, label %62, label %64

62:                                               ; preds = %50
  %63 = load i32, ptr %5, align 4, !tbaa !30
  store i32 %63, ptr %2, align 4
  store i32 1, ptr %6, align 4
  br label %130

64:                                               ; preds = %50
  br label %65

65:                                               ; preds = %64
  br label %66

66:                                               ; preds = %65
  br label %67

67:                                               ; preds = %66, %44
  %68 = load ptr, ptr %4, align 8, !tbaa !22
  %69 = getelementptr inbounds nuw %struct.HueContext, ptr %68, i32 0, i32 3
  %70 = load ptr, ptr %69, align 8, !tbaa !28
  %71 = icmp ne ptr %70, null
  br i1 %71, label %72, label %90

72:                                               ; preds = %67
  br label %73

73:                                               ; preds = %72
  %74 = load ptr, ptr %4, align 8, !tbaa !22
  %75 = getelementptr inbounds nuw %struct.HueContext, ptr %74, i32 0, i32 5
  %76 = load ptr, ptr %4, align 8, !tbaa !22
  %77 = getelementptr inbounds nuw %struct.HueContext, ptr %76, i32 0, i32 3
  %78 = load ptr, ptr %4, align 8, !tbaa !22
  %79 = getelementptr inbounds nuw %struct.HueContext, ptr %78, i32 0, i32 3
  %80 = load ptr, ptr %79, align 8, !tbaa !28
  %81 = load ptr, ptr %3, align 8, !tbaa !4
  %82 = call i32 @set_expr(ptr noundef %75, ptr noundef %77, ptr noundef %80, ptr noundef @.str.7, ptr noundef %81)
  store i32 %82, ptr %5, align 4, !tbaa !30
  %83 = load i32, ptr %5, align 4, !tbaa !30
  %84 = icmp slt i32 %83, 0
  br i1 %84, label %85, label %87

85:                                               ; preds = %73
  %86 = load i32, ptr %5, align 4, !tbaa !30
  store i32 %86, ptr %2, align 4
  store i32 1, ptr %6, align 4
  br label %130

87:                                               ; preds = %73
  br label %88

88:                                               ; preds = %87
  br label %89

89:                                               ; preds = %88
  br label %90

90:                                               ; preds = %89, %67
  %91 = load ptr, ptr %4, align 8, !tbaa !22
  %92 = getelementptr inbounds nuw %struct.HueContext, ptr %91, i32 0, i32 4
  %93 = load ptr, ptr %92, align 8, !tbaa !24
  %94 = icmp ne ptr %93, null
  br i1 %94, label %95, label %113

95:                                               ; preds = %90
  br label %96

96:                                               ; preds = %95
  %97 = load ptr, ptr %4, align 8, !tbaa !22
  %98 = getelementptr inbounds nuw %struct.HueContext, ptr %97, i32 0, i32 6
  %99 = load ptr, ptr %4, align 8, !tbaa !22
  %100 = getelementptr inbounds nuw %struct.HueContext, ptr %99, i32 0, i32 4
  %101 = load ptr, ptr %4, align 8, !tbaa !22
  %102 = getelementptr inbounds nuw %struct.HueContext, ptr %101, i32 0, i32 4
  %103 = load ptr, ptr %102, align 8, !tbaa !24
  %104 = load ptr, ptr %3, align 8, !tbaa !4
  %105 = call i32 @set_expr(ptr noundef %98, ptr noundef %100, ptr noundef %103, ptr noundef @.str.12, ptr noundef %104)
  store i32 %105, ptr %5, align 4, !tbaa !30
  %106 = load i32, ptr %5, align 4, !tbaa !30
  %107 = icmp slt i32 %106, 0
  br i1 %107, label %108, label %110

108:                                              ; preds = %96
  %109 = load i32, ptr %5, align 4, !tbaa !30
  store i32 %109, ptr %2, align 4
  store i32 1, ptr %6, align 4
  br label %130

110:                                              ; preds = %96
  br label %111

111:                                              ; preds = %110
  br label %112

112:                                              ; preds = %111
  br label %113

113:                                              ; preds = %112, %90
  %114 = load ptr, ptr %3, align 8, !tbaa !4
  %115 = load ptr, ptr %4, align 8, !tbaa !22
  %116 = getelementptr inbounds nuw %struct.HueContext, ptr %115, i32 0, i32 4
  %117 = load ptr, ptr %116, align 8, !tbaa !24
  %118 = load ptr, ptr %4, align 8, !tbaa !22
  %119 = getelementptr inbounds nuw %struct.HueContext, ptr %118, i32 0, i32 3
  %120 = load ptr, ptr %119, align 8, !tbaa !28
  %121 = load ptr, ptr %4, align 8, !tbaa !22
  %122 = getelementptr inbounds nuw %struct.HueContext, ptr %121, i32 0, i32 8
  %123 = load ptr, ptr %122, align 8, !tbaa !31
  %124 = load ptr, ptr %4, align 8, !tbaa !22
  %125 = getelementptr inbounds nuw %struct.HueContext, ptr %124, i32 0, i32 11
  %126 = load ptr, ptr %125, align 8, !tbaa !29
  call void (ptr, i32, ptr, ...) @av_log(ptr noundef %114, i32 noundef 40, ptr noundef @.str.19, ptr noundef %117, ptr noundef %120, ptr noundef %123, ptr noundef %126)
  %127 = load ptr, ptr %4, align 8, !tbaa !22
  call void @compute_sin_and_cos(ptr noundef %127)
  %128 = load ptr, ptr %4, align 8, !tbaa !22
  %129 = getelementptr inbounds nuw %struct.HueContext, ptr %128, i32 0, i32 15
  store i32 1, ptr %129, align 8, !tbaa !32
  store i32 0, ptr %2, align 4
  store i32 1, ptr %6, align 4
  br label %130

130:                                              ; preds = %113, %108, %85, %62, %39, %19
  call void @llvm.lifetime.end.p0(i64 4, ptr %5) #9
  call void @llvm.lifetime.end.p0(i64 8, ptr %4) #9
  %131 = load i32, ptr %2, align 4
  ret i32 %131
}