; Function Attrs: cold nounwind optsize uwtable
define internal range(i32 -2147483648, 1) i32 @init(ptr noundef %0) #0 {
  %2 = getelementptr inbounds nuw i8, ptr %0, i64 72
  %3 = load ptr, ptr %2, align 8, !tbaa !4
  %4 = getelementptr inbounds nuw i8, ptr %3, i64 24
  %5 = load ptr, ptr %4, align 8, !tbaa !20
  %.not = icmp eq ptr %5, null
  br i1 %.not, label %10, label %6

6:                                                ; preds = %1
  %7 = getelementptr inbounds nuw i8, ptr %3, i64 16
  %8 = load ptr, ptr %7, align 8, !tbaa !24
  %.not47 = icmp eq ptr %8, null
  br i1 %.not47, label %10, label %9

9:                                                ; preds = %6
  tail call void (ptr, i32, ptr, ...) @av_log(ptr noundef nonnull %0, i32 noundef 16, ptr noundef nonnull @.str.18) #6
  br label %61

10:                                               ; preds = %6, %1
  %11 = getelementptr inbounds nuw i8, ptr %3, i64 80
  %12 = load ptr, ptr %11, align 8, !tbaa !25
  %.not48 = icmp eq ptr %12, null
  br i1 %.not48, label %17, label %13

13:                                               ; preds = %10
  %14 = getelementptr inbounds nuw i8, ptr %3, i64 88
  %15 = tail call fastcc i32 @set_expr(ptr noundef nonnull %14, ptr noundef nonnull %11, ptr noundef nonnull %12, ptr noundef nonnull @.str.14, ptr noundef nonnull %0)
  %16 = icmp slt i32 %15, 0
  br i1 %16, label %61, label %17

17:                                               ; preds = %13, %10
  %18 = getelementptr inbounds nuw i8, ptr %3, i64 56
  %19 = load ptr, ptr %18, align 8, !tbaa !26
  %.not49 = icmp eq ptr %19, null
  br i1 %.not49, label %24, label %20

20:                                               ; preds = %17
  %21 = getelementptr inbounds nuw i8, ptr %3, i64 64
  %22 = tail call fastcc i32 @set_expr(ptr noundef nonnull %21, ptr noundef nonnull %18, ptr noundef nonnull %19, ptr noundef nonnull @.str.9, ptr noundef nonnull %0)
  %23 = icmp slt i32 %22, 0
  br i1 %23, label %61, label %24

24:                                               ; preds = %20, %17
  %25 = getelementptr inbounds nuw i8, ptr %3, i64 16
  %26 = load ptr, ptr %25, align 8, !tbaa !24
  %.not50 = icmp eq ptr %26, null
  br i1 %.not50, label %31, label %27

27:                                               ; preds = %24
  %28 = getelementptr inbounds nuw i8, ptr %3, i64 32
  %29 = tail call fastcc i32 @set_expr(ptr noundef nonnull %28, ptr noundef nonnull %25, ptr noundef nonnull %26, ptr noundef nonnull @.str.7, ptr noundef nonnull %0)
  %30 = icmp slt i32 %29, 0
  br i1 %30, label %61, label %31

31:                                               ; preds = %27, %24
  %32 = load ptr, ptr %4, align 8, !tbaa !20
  %.not51 = icmp eq ptr %32, null
  br i1 %.not51, label %37, label %33

33:                                               ; preds = %31
  %34 = getelementptr inbounds nuw i8, ptr %3, i64 40
  %35 = tail call fastcc i32 @set_expr(ptr noundef nonnull %34, ptr noundef nonnull %4, ptr noundef nonnull %32, ptr noundef nonnull @.str.12, ptr noundef nonnull %0)
  %36 = icmp slt i32 %35, 0
  br i1 %36, label %61, label %._crit_edge

._crit_edge:                                      ; preds = %33
  %.pre = load ptr, ptr %4, align 8, !tbaa !20
  br label %37

37:                                               ; preds = %._crit_edge, %31
  %38 = phi ptr [ %.pre, %._crit_edge ], [ null, %31 ]
  %39 = load ptr, ptr %25, align 8, !tbaa !24
  %40 = load ptr, ptr %18, align 8, !tbaa !26
  %41 = load ptr, ptr %11, align 8, !tbaa !25
  tail call void (ptr, i32, ptr, ...) @av_log(ptr noundef nonnull %0, i32 noundef 40, ptr noundef nonnull @.str.19, ptr noundef %38, ptr noundef %39, ptr noundef %40, ptr noundef %41) #6
  %42 = getelementptr inbounds nuw i8, ptr %3, i64 12
  %43 = load float, ptr %42, align 4, !tbaa !27
  %44 = fpext nsz float %43 to double
  %45 = tail call nsz double @llvm.sin.f64(double %44)
  %46 = fmul nsz double %45, 6.553600e+04
  %47 = getelementptr inbounds nuw i8, ptr %3, i64 48
  %48 = load float, ptr %47, align 8, !tbaa !28
  %49 = fpext nsz float %48 to double
  %50 = fmul nsz double %46, %49
  %51 = tail call i64 @llvm.lrint.i64.f64(double %50)
  %52 = trunc i64 %51 to i32
  %53 = getelementptr inbounds nuw i8, ptr %3, i64 108
  store i32 %52, ptr %53, align 4, !tbaa !29
  %54 = tail call nsz double @llvm.cos.f64(double %44)
  %55 = fmul nsz double %54, 6.553600e+04
  %56 = fmul nsz double %55, %49
  %57 = tail call i64 @llvm.lrint.i64.f64(double %56)
  %58 = trunc i64 %57 to i32
  %59 = getelementptr inbounds nuw i8, ptr %3, i64 112
  store i32 %58, ptr %59, align 8, !tbaa !30
  %60 = getelementptr inbounds nuw i8, ptr %3, i64 104
  store i32 1, ptr %60, align 8, !tbaa !31
  br label %61

61:                                               ; preds = %33, %27, %20, %13, %37, %9
  %.0 = phi i32 [ -22, %9 ], [ 0, %37 ], [ %15, %13 ], [ %22, %20 ], [ %29, %27 ], [ %35, %33 ]
  ret i32 %.0
}